target datalayout = "e-m:e-p270:32:32-p271:32:32-p272:64:64-i64:64-i128:128-f80:128-n8:16:32:64-S128"
target triple = "x86_64-pc-linux-gnu"

%struct.darktable_t = type { %struct.dt_codepath_t, i32, i32, ptr, ptr, ptr, ptr, ptr, ptr, ptr, ptr, ptr, ptr, ptr, ptr, ptr, ptr, ptr, ptr, ptr, ptr, ptr, ptr, ptr, ptr, ptr, ptr, ptr, ptr, ptr, [64 x %struct.dt_pthread_mutex_t], %struct.dt_pthread_mutex_t, %struct.dt_pthread_mutex_t, %struct.dt_pthread_mutex_t, %struct.dt_pthread_mutex_t, %struct.dt_pthread_mutex_t, ptr, ptr, ptr, ptr, ptr, ptr, ptr, ptr, ptr, ptr, ptr, ptr, ptr, %struct.dt_lua_state_t, ptr, double, ptr, i32, [47 x i32], i32, i32, ptr, ptr, %struct.dt_sys_resources_t, %struct.dt_backthumb_t, %struct.dt_gimp_t }
%struct.dt_codepath_t = type { i8, [3 x i8] }
%struct.dt_pthread_mutex_t = type { %union.pthread_mutex_t }
%union.pthread_mutex_t = type { %struct.__pthread_mutex_s }
%struct.__pthread_mutex_s = type { i32, i32, i32, i32, i32, i16, i16, %struct.__pthread_internal_list }
%struct.__pthread_internal_list = type { ptr, ptr }
%struct.dt_lua_state_t = type { i32 }
%struct.dt_sys_resources_t = type { i64, i64, ptr, ptr, i32 }
%struct.dt_backthumb_t = type { double, double, i32, i32, i32, i32 }
%struct.dt_gimp_t = type { i32, ptr, ptr, i32, i32 }
%struct.dt_action_t = type { i32, ptr, ptr, ptr, ptr, ptr }
%struct.dt_control_t = type { i32, ptr, %struct.dt_action_t, %struct.dt_action_t, %struct.dt_action_t, %struct.dt_action_t, %struct.dt_action_t, %struct.dt_action_t, %struct.dt_action_t, %struct.dt_action_t, %struct.dt_action_t, %struct.dt_action_t, %struct.dt_action_t, ptr, ptr, ptr, i32, ptr, i32, i32, ptr, ptr, [256 x i8], i32, double, i32, i32, i64, i32, i32, i32, double, double, i32, i32, i32, i32, i32, i32, [8 x [1000 x i8]], i32, i32, %struct.dt_pthread_mutex_t, i32, i32, [2 x [300 x i8]], i32, i32, %struct.dt_pthread_mutex_t, %struct.dt_pthread_mutex_t, %struct.dt_pthread_mutex_t, double, i32, i32, i32, %struct.dt_pthread_mutex_t, %struct.dt_pthread_mutex_t, %union.pthread_cond_t, i32, ptr, i64, i64, ptr, [5 x ptr], [5 x i64], %struct.dt_pthread_mutex_t, [3 x ptr], [3 x i8], [3 x i64], %struct.anon.0, %struct.anon.2 }
%union.pthread_cond_t = type { %struct.__pthread_cond_s }
%struct.__pthread_cond_s = type { %union.__atomic_wide_counter, %union.__atomic_wide_counter, [2 x i32], [2 x i32], i32, i32, [2 x i32] }
%union.__atomic_wide_counter = type { i64 }
%struct.anon.0 = type { ptr, i64, i64, double, %struct.dt_pthread_mutex_t, %struct.anon.1 }
%struct.anon.1 = type { ptr, ptr, ptr, ptr, ptr, ptr }
%struct.anon.2 = type { %struct.anon.3 }
%struct.anon.3 = type { ptr, ptr }

@darktable = external global %struct.darktable_t, align 8

; Function Attrs: inlinehint nounwind uwtable
define internal i32 @dt_pthread_mutex_unlock(ptr noundef %0) #4 {
  %2 = alloca ptr, align 8
  store ptr %0, ptr %2, align 8, !tbaa !118
  %3 = load ptr, ptr %2, align 8, !tbaa !118
  %4 = getelementptr inbounds nuw %struct.dt_pthread_mutex_t, ptr %3, i32 0, i32 0
  %5 = call i32 @pthread_mutex_unlock(ptr noundef %4) #10
  ret i32 %5
}

; Function Attrs: inlinehint nounwind uwtable
define internal i32 @dt_pthread_mutex_lock(ptr noundef %0) #4 {
  %2 = alloca ptr, align 8
  store ptr %0, ptr %2, align 8, !tbaa !118
  %3 = load ptr, ptr %2, align 8, !tbaa !118
  %4 = getelementptr inbounds nuw %struct.dt_pthread_mutex_t, ptr %3, i32 0, i32 0
  %5 = call i32 @pthread_mutex_lock(ptr noundef %4) #10
  ret i32 %5
}

; Function Attrs: nounwind uwtable
define void @dt_control_expose(ptr noundef %0, ptr noundef %1) #0 {
  %3 = alloca ptr, align 8
  %4 = alloca ptr, align 8
  %5 = alloca i32, align 4
  %6 = alloca i32, align 4
  %7 = alloca ptr, align 8
  store ptr %0, ptr %3, align 8, !tbaa !137
  store ptr %1, ptr %4, align 8, !tbaa !143
  call void @llvm.lifetime.start.p0(i64 4, ptr %5) #10
  call void @llvm.lifetime.start.p0(i64 4, ptr %6) #10
  %8 = load ptr, ptr %3, align 8, !tbaa !137
  %9 = call ptr @gtk_widget_get_window(ptr noundef %8)
  %10 = load ptr, ptr %3, align 8, !tbaa !137
  %11 = call ptr @gtk_widget_get_display(ptr noundef %10)
  %12 = call ptr @gdk_display_get_default_seat(ptr noundef %11)
  %13 = call ptr @gdk_seat_get_pointer(ptr noundef %12)
  %14 = call ptr @gdk_window_get_device_position(ptr noundef %9, ptr noundef %13, ptr noundef %5, ptr noundef %6, ptr noundef null)
  call void @llvm.lifetime.start.p0(i64 8, ptr %7) #10
  %15 = load ptr, ptr getelementptr inbounds nuw (%struct.darktable_t, ptr @darktable, i32 0, i32 12), align 8, !tbaa !120
  store ptr %15, ptr %7, align 8, !tbaa !73
  %16 = load ptr, ptr %3, align 8, !tbaa !137
  %17 = call i32 @gtk_widget_get_allocated_width(ptr noundef %16)
  %18 = load ptr, ptr %7, align 8, !tbaa !73
  %19 = getelementptr inbounds nuw %struct.dt_control_t, ptr %18, i32 0, i32 25
  store i32 %17, ptr %19, align 8, !tbaa !162
  %20 = load ptr, ptr %3, align 8, !tbaa !137
  %21 = call i32 @gtk_widget_get_allocated_height(ptr noundef %20)
  %22 = load ptr, ptr %7, align 8, !tbaa !73
  %23 = getelementptr inbounds nuw %struct.dt_control_t, ptr %22, i32 0, i32 26
  store i32 %21, ptr %23, align 4, !tbaa !163
  %24 = load ptr, ptr getelementptr inbounds nuw (%struct.darktable_t, ptr @darktable, i32 0, i32 11), align 8, !tbaa !14
  %25 = load ptr, ptr %4, align 8, !tbaa !143
  %26 = load ptr, ptr %7, align 8, !tbaa !73
  %27 = getelementptr inbounds nuw %struct.dt_control_t, ptr %26, i32 0, i32 25
  %28 = load i32, ptr %27, align 8, !tbaa !162
  %29 = load ptr, ptr %7, align 8, !tbaa !73
  %30 = getelementptr inbounds nuw %struct.dt_control_t, ptr %29, i32 0, i32 26
  %31 = load i32, ptr %30, align 4, !tbaa !163
  %32 = load i32, ptr %5, align 4, !tbaa !10
  %33 = load i32, ptr %6, align 4, !tbaa !10
  call void @dt_view_manager_expose(ptr noundef %24, ptr noundef %25, i32 noundef %28, i32 noundef %31, i32 noundef %32, i32 noundef %33)
  %34 = load ptr, ptr %7, align 8, !tbaa !73
  %35 = getelementptr inbounds nuw %struct.dt_control_t, ptr %34, i32 0, i32 42
  %36 = call i32 @dt_pthread_mutex_lock(ptr noundef %35)
  %37 = load ptr, ptr %7, align 8, !tbaa !73
  %38 = getelementptr inbounds nuw %struct.dt_control_t, ptr %37, i32 0, i32 41
  %39 = load i32, ptr %38, align 4, !tbaa !108
  %40 = icmp sgt i32 %39, 0
  br i1 %40, label %41, label %49

41:                                               ; preds = %2
  %42 = load ptr, ptr %4, align 8, !tbaa !143
  %43 = load ptr, ptr %7, align 8, !tbaa !73
  %44 = getelementptr inbounds nuw %struct.dt_control_t, ptr %43, i32 0, i32 25
  %45 = load i32, ptr %44, align 8, !tbaa !162
  %46 = load ptr, ptr %7, align 8, !tbaa !73
  %47 = getelementptr inbounds nuw %struct.dt_control_t, ptr %46, i32 0, i32 26
  %48 = load i32, ptr %47, align 4, !tbaa !163
  call void @dt_control_draw_busy_msg(ptr noundef %42, i32 noundef %45, i32 noundef %48)
  br label %49

49:                                               ; preds = %41, %2
  %50 = load ptr, ptr %7, align 8, !tbaa !73
  %51 = getelementptr inbounds nuw %struct.dt_control_t, ptr %50, i32 0, i32 42
  %52 = call i32 @dt_pthread_mutex_unlock(ptr noundef %51)
  call void @llvm.lifetime.end.p0(i64 8, ptr %7) #10
  call void @llvm.lifetime.end.p0(i64 4, ptr %6) #10
  call void @llvm.lifetime.end.p0(i64 4, ptr %5) #10
  ret void
}