; Function Attrs: nounwind uwtable
define void @dt_control_expose(ptr noundef %0, ptr noundef %1) local_unnamed_addr #0 {
  %3 = alloca i32, align 4
  %4 = alloca i32, align 4
  call void @llvm.lifetime.start.p0(i64 4, ptr nonnull %3) #13
  call void @llvm.lifetime.start.p0(i64 4, ptr nonnull %4) #13
  %5 = tail call ptr @gtk_widget_get_window(ptr noundef %0) #13
  %6 = tail call ptr @gtk_widget_get_display(ptr noundef %0) #13
  %7 = tail call ptr @gdk_display_get_default_seat(ptr noundef %6) #13
  %8 = tail call ptr @gdk_seat_get_pointer(ptr noundef %7) #13
  %9 = call ptr @gdk_window_get_device_position(ptr noundef %5, ptr noundef %8, ptr noundef nonnull %3, ptr noundef nonnull %4, ptr noundef null) #13
  %10 = load ptr, ptr getelementptr inbounds nuw (i8, ptr @darktable, i64 88), align 8, !tbaa !107
  %11 = call i32 @gtk_widget_get_allocated_width(ptr noundef %0) #13
  %12 = getelementptr inbounds nuw i8, ptr %10, i64 880
  store i32 %11, ptr %12, align 8, !tbaa !138
  %13 = call i32 @gtk_widget_get_allocated_height(ptr noundef %0) #13
  %14 = getelementptr inbounds nuw i8, ptr %10, i64 884
  store i32 %13, ptr %14, align 4, !tbaa !139
  %15 = load ptr, ptr getelementptr inbounds nuw (i8, ptr @darktable, i64 80), align 8, !tbaa !6
  %16 = load i32, ptr %12, align 8, !tbaa !138
  %17 = load i32, ptr %3, align 4, !tbaa !69
  %18 = load i32, ptr %4, align 4, !tbaa !69
  call void @dt_view_manager_expose(ptr noundef %15, ptr noundef %1, i32 noundef %16, i32 noundef %13, i32 noundef %17, i32 noundef %18) #13
  %19 = getelementptr inbounds nuw i8, ptr %10, i64 8960
  %20 = call i32 @pthread_mutex_lock(ptr noundef nonnull %19) #13
  %21 = getelementptr inbounds nuw i8, ptr %10, i64 8956
  %22 = load i32, ptr %21, align 4, !tbaa !97
  %23 = icmp sgt i32 %22, 0
  br i1 %23, label %24, label %27

24:                                               ; preds = %2
  %25 = load i32, ptr %12, align 8, !tbaa !138
  %26 = load i32, ptr %14, align 4, !tbaa !139
  call void @dt_control_draw_busy_msg(ptr noundef %1, i32 noundef %25, i32 noundef %26)
  br label %27

27:                                               ; preds = %24, %2
  %28 = call i32 @pthread_mutex_unlock(ptr noundef nonnull %19) #13
  call void @llvm.lifetime.end.p0(i64 4, ptr nonnull %4) #13
  call void @llvm.lifetime.end.p0(i64 4, ptr nonnull %3) #13
  ret void
}